target datalayout = "e-m:e-p270:32:32-p271:32:32-p272:64:64-i64:64-i128:128-f80:128-n8:16:32:64-S128"
target triple = "x86_64-pc-linux-gnu"

%struct.rlimit = type { i64, i64 }

; Function Attrs: nounwind uwtable
define internal i64 @uv__min_stack_size() #0 {
  %1 = alloca i64, align 8
  %2 = call i64 @__sysconf(i32 noundef 75) #8
  %3 = icmp ult i64 8192, %2
  br i1 %3, label %4, label %6

4:                                                ; preds = %0
  %5 = call i64 @__sysconf(i32 noundef 75) #8
  store i64 %5, ptr %1, align 8
  br label %7

6:                                                ; preds = %0
  store i64 8192, ptr %1, align 8
  br label %7

7:                                                ; preds = %6, %4
  %8 = load i64, ptr %1, align 8
  ret i64 %8
}

; Function Attrs: nounwind uwtable
define internal i64 @uv__default_stack_size() #0 {
  ret i64 2097152
}

; Function Attrs: nounwind uwtable
define dso_local i64 @uv__thread_stack_size() #0 {
  %1 = alloca i64, align 8
  %2 = alloca %struct.rlimit, align 8
  %3 = alloca i32, align 4
  call void @llvm.lifetime.start.p0(i64 16, ptr %2) #8
  %4 = call i32 @getrlimit(i32 noundef 3, ptr noundef %2) #8
  %5 = icmp ne i32 %4, 0
  br i1 %5, label %6, label %8

6:                                                ; preds = %0
  %7 = call i64 @uv__default_stack_size()
  store i64 %7, ptr %1, align 8
  store i32 1, ptr %3, align 4
  br label %32

8:                                                ; preds = %0
  %9 = getelementptr inbounds nuw %struct.rlimit, ptr %2, i32 0, i32 0
  %10 = load i64, ptr %9, align 8, !tbaa !10
  %11 = icmp eq i64 %10, -1
  br i1 %11, label %12, label %14

12:                                               ; preds = %8
  %13 = call i64 @uv__default_stack_size()
  store i64 %13, ptr %1, align 8
  store i32 1, ptr %3, align 4
  br label %32

14:                                               ; preds = %8
  %15 = getelementptr inbounds nuw %struct.rlimit, ptr %2, i32 0, i32 0
  %16 = load i64, ptr %15, align 8, !tbaa !10
  %17 = call i32 @getpagesize() #10
  %18 = sext i32 %17 to i64
  %19 = urem i64 %16, %18
  %20 = getelementptr inbounds nuw %struct.rlimit, ptr %2, i32 0, i32 0
  %21 = load i64, ptr %20, align 8, !tbaa !10
  %22 = sub i64 %21, %19
  store i64 %22, ptr %20, align 8, !tbaa !10
  %23 = getelementptr inbounds nuw %struct.rlimit, ptr %2, i32 0, i32 0
  %24 = load i64, ptr %23, align 8, !tbaa !10
  %25 = call i64 @uv__min_stack_size()
  %26 = icmp uge i64 %24, %25
  br i1 %26, label %27, label %30

27:                                               ; preds = %14
  %28 = getelementptr inbounds nuw %struct.rlimit, ptr %2, i32 0, i32 0
  %29 = load i64, ptr %28, align 8, !tbaa !10
  store i64 %29, ptr %1, align 8
  store i32 1, ptr %3, align 4
  br label %32

30:                                               ; preds = %14
  %31 = call i64 @uv__default_stack_size()
  store i64 %31, ptr %1, align 8
  store i32 1, ptr %3, align 4
  br label %32

32:                                               ; preds = %30, %27, %12, %6
  call void @llvm.lifetime.end.p0(i64 16, ptr %2) #8
  %33 = load i64, ptr %1, align 8
  ret i64 %33
}