; Function Attrs: nounwind uwtable
define dso_local i64 @uv__thread_stack_size() local_unnamed_addr #0 {
  %1 = alloca %struct.rlimit, align 8
  call void @llvm.lifetime.start.p0(i64 16, ptr nonnull %1) #10
  %2 = call i32 @getrlimit(i32 noundef 3, ptr noundef nonnull %1) #10
  %.not = icmp eq i32 %2, 0
  br i1 %.not, label %3, label %16

3:                                                ; preds = %0
  %4 = load i64, ptr %1, align 8, !tbaa !4
  %5 = icmp eq i64 %4, -1
  br i1 %5, label %16, label %6

6:                                                ; preds = %3
  %7 = tail call i32 @getpagesize() #12
  %8 = sext i32 %7 to i64
  %9 = urem i64 %4, %8
  %10 = sub i64 %4, %9
  store i64 %10, ptr %1, align 8, !tbaa !4
  %11 = call i64 @__sysconf(i32 noundef 75) #10
  %12 = icmp ugt i64 %11, 8192
  br i1 %12, label %13, label %uv__min_stack_size.exit

13:                                               ; preds = %6
  %14 = call i64 @__sysconf(i32 noundef 75) #10
  br label %uv__min_stack_size.exit

uv__min_stack_size.exit:                          ; preds = %6, %13
  %.0.i = phi i64 [ %14, %13 ], [ 8192, %6 ]
  %.not2 = icmp ult i64 %10, %.0.i
  %15 = load i64, ptr %1, align 8
  %spec.select = select i1 %.not2, i64 2097152, i64 %15
  br label %16

16:                                               ; preds = %uv__min_stack_size.exit, %3, %0
  %.0 = phi i64 [ 2097152, %0 ], [ 2097152, %3 ], [ %spec.select, %uv__min_stack_size.exit ]
  call void @llvm.lifetime.end.p0(i64 16, ptr nonnull %1) #10
  ret i64 %.0
}